target datalayout = "e-m:e-p270:32:32-p271:32:32-p272:64:64-i64:64-i128:128-f80:128-n8:16:32:64-S128"
target triple = "x86_64-pc-linux-gnu"

%"class.llvm::SmallVectorBase" = type { ptr, i32, i32 }
%"class.llvm::SmallVector.24" = type { %"class.llvm::SmallVectorImpl.25", %"struct.llvm::SmallVectorStorage.29" }
%"class.llvm::SmallVectorImpl.25" = type { %"class.llvm::SmallVectorTemplateBase.26" }
%"class.llvm::SmallVectorTemplateBase.26" = type { %"class.llvm::SmallVectorTemplateCommon.27" }
%"class.llvm::SmallVectorTemplateCommon.27" = type { %"class.llvm::SmallVectorBase.28" }
%"class.llvm::SmallVectorBase.28" = type { ptr, i64, i64 }
%"struct.llvm::SmallVectorStorage.29" = type { [32 x i8] }
%"class.llvm::BitVector" = type <{ %"class.llvm::SmallVector.43", i32, [4 x i8] }>
%"class.llvm::SmallVector.43" = type { %"class.llvm::SmallVectorImpl.44", %"struct.llvm::SmallVectorStorage.47" }
%"class.llvm::SmallVectorImpl.44" = type { %"class.llvm::SmallVectorTemplateBase.45" }
%"class.llvm::SmallVectorTemplateBase.45" = type { %"class.llvm::SmallVectorTemplateCommon.46" }
%"class.llvm::SmallVectorTemplateCommon.46" = type { %"class.llvm::SmallVectorBase" }
%"struct.llvm::SmallVectorStorage.47" = type { [48 x i8] }
%"class.llvm::PressureChange" = type { i16, i16 }
%"class.llvm::ArrayRef.251" = type { ptr, i64 }
%"struct.llvm::RegPressureDelta" = type { %"class.llvm::PressureChange", %"class.llvm::PressureChange", %"class.llvm::PressureChange" }
%"class.llvm::RegisterClassInfo" = type { %"class.std::unique_ptr.252", i32, ptr, ptr, %"class.llvm::SmallVector.24", %"class.llvm::SmallVector.260", %"class.llvm::BitVector", %"class.llvm::BitVector", %"class.std::unique_ptr.262", %"class.llvm::ArrayRef.270" }
%"class.std::unique_ptr.252" = type { %"struct.std::__uniq_ptr_data.253" }
%"struct.std::__uniq_ptr_data.253" = type { %"class.std::__uniq_ptr_impl.254" }
%"class.std::__uniq_ptr_impl.254" = type { %"class.std::tuple.255" }
%"class.std::tuple.255" = type { %"struct.std::_Tuple_impl.256" }
%"struct.std::_Tuple_impl.256" = type { %"struct.std::_Head_base.259" }
%"struct.std::_Head_base.259" = type { ptr }
%"class.llvm::SmallVector.260" = type { %"class.llvm::SmallVectorImpl.25", %"struct.llvm::SmallVectorStorage.261" }
%"struct.llvm::SmallVectorStorage.261" = type { [40 x i8] }
%"class.std::unique_ptr.262" = type { %"struct.std::__uniq_ptr_data.263" }
%"struct.std::__uniq_ptr_data.263" = type { %"class.std::__uniq_ptr_impl.264" }
%"class.std::__uniq_ptr_impl.264" = type { %"class.std::tuple.265" }
%"class.std::tuple.265" = type { %"struct.std::_Tuple_impl.266" }
%"struct.std::_Tuple_impl.266" = type { %"struct.std::_Head_base.269" }
%"struct.std::_Head_base.269" = type { ptr }
%"class.llvm::ArrayRef.270" = type { ptr, i64 }

; Function Attrs: mustprogress nounwind uwtable
define linkonce_odr hidden noundef nonnull align 8 dereferenceable(8) ptr @_ZNSt10_Head_baseILm0EPjLb0EE7_M_headERKS1_(ptr noundef nonnull align 8 dereferenceable(8) %0) #0 comdat align 2 {
  %2 = alloca ptr, align 8
  store ptr %0, ptr %2, align 8
  %3 = load ptr, ptr %2, align 8
  %4 = getelementptr inbounds nuw %"struct.std::_Head_base.269", ptr %3, i32 0, i32 0
  ret ptr %4
}

; Function Attrs: mustprogress nounwind uwtable
define linkonce_odr hidden noundef nonnull align 8 dereferenceable(8) ptr @_ZNSt11_Tuple_implILm0EJPjSt14default_deleteIA_jEEE7_M_headERKS4_(ptr noundef nonnull align 8 dereferenceable(8) %0) #0 comdat align 2 {
  %2 = alloca ptr, align 8
  store ptr %0, ptr %2, align 8
  %3 = load ptr, ptr %2, align 8
  %4 = call noundef nonnull align 8 dereferenceable(8) ptr @_ZNSt10_Head_baseILm0EPjLb0EE7_M_headERKS1_(ptr noundef nonnull align 8 dereferenceable(8) %3) #11
  ret ptr %4
}

; Function Attrs: mustprogress nounwind uwtable
define linkonce_odr noundef nonnull align 8 dereferenceable(8) ptr @_ZSt12__get_helperILm0EPjJSt14default_deleteIA_jEEERKT0_RKSt11_Tuple_implIXT_EJS4_DpT1_EE(ptr noundef nonnull align 8 dereferenceable(8) %0) #0 comdat {
  %2 = alloca ptr, align 8
  store ptr %0, ptr %2, align 8
  %3 = load ptr, ptr %2, align 8
  %4 = call noundef nonnull align 8 dereferenceable(8) ptr @_ZNSt11_Tuple_implILm0EJPjSt14default_deleteIA_jEEE7_M_headERKS4_(ptr noundef nonnull align 8 dereferenceable(8) %3) #11
  ret ptr %4
}

; Function Attrs: mustprogress nounwind uwtable
define linkonce_odr noundef nonnull align 8 dereferenceable(8) ptr @_ZSt3getILm0EJPjSt14default_deleteIA_jEEERKNSt13tuple_elementIXT_ESt5tupleIJDpT0_EEE4typeERKS8_(ptr noundef nonnull align 8 dereferenceable(8) %0) #0 comdat {
  %2 = alloca ptr, align 8
  store ptr %0, ptr %2, align 8
  %3 = load ptr, ptr %2, align 8
  %4 = call noundef nonnull align 8 dereferenceable(8) ptr @_ZSt12__get_helperILm0EPjJSt14default_deleteIA_jEEERKT0_RKSt11_Tuple_implIXT_EJS4_DpT1_EE(ptr noundef nonnull align 8 dereferenceable(8) %3) #11
  ret ptr %4
}

; Function Attrs: mustprogress nounwind uwtable
define linkonce_odr hidden noundef ptr @_ZNKSt15__uniq_ptr_implIjSt14default_deleteIA_jEE6_M_ptrEv(ptr noundef nonnull align 8 dereferenceable(8) %0) #0 comdat align 2 {
  %2 = alloca ptr, align 8
  store ptr %0, ptr %2, align 8
  %3 = load ptr, ptr %2, align 8
  %4 = getelementptr inbounds nuw %"class.std::__uniq_ptr_impl.264", ptr %3, i32 0, i32 0
  %5 = call noundef nonnull align 8 dereferenceable(8) ptr @_ZSt3getILm0EJPjSt14default_deleteIA_jEEERKNSt13tuple_elementIXT_ESt5tupleIJDpT0_EEE4typeERKS8_(ptr noundef nonnull align 8 dereferenceable(8) %4) #11
  %6 = load ptr, ptr %5, align 8
  ret ptr %6
}

; Function Attrs: mustprogress nounwind uwtable
define linkonce_odr hidden noundef ptr @_ZNKSt10unique_ptrIA_jSt14default_deleteIS0_EE3getEv(ptr noundef nonnull align 8 dereferenceable(8) %0) #0 comdat align 2 {
  %2 = alloca ptr, align 8
  store ptr %0, ptr %2, align 8
  %3 = load ptr, ptr %2, align 8
  %4 = getelementptr inbounds nuw %"class.std::unique_ptr.262", ptr %3, i32 0, i32 0
  %5 = call noundef ptr @_ZNKSt15__uniq_ptr_implIjSt14default_deleteIA_jEE6_M_ptrEv(ptr noundef nonnull align 8 dereferenceable(8) %4) #11
  ret ptr %5
}

; Function Attrs: mustprogress nounwind uwtable
define linkonce_odr hidden noundef nonnull align 4 dereferenceable(4) ptr @_ZNKSt10unique_ptrIA_jSt14default_deleteIS0_EEixEm(ptr noundef nonnull align 8 dereferenceable(8) %0, i64 noundef %1) #0 comdat align 2 {
  %3 = alloca ptr, align 8
  %4 = alloca i64, align 8
  store ptr %0, ptr %3, align 8
  store i64 %1, ptr %4, align 8
  %5 = load ptr, ptr %3, align 8
  br label %6

6:                                                ; preds = %2
  br label %7

7:                                                ; preds = %6
  %8 = call noundef ptr @_ZNKSt10unique_ptrIA_jSt14default_deleteIS0_EE3getEv(ptr noundef nonnull align 8 dereferenceable(8) %5) #11
  %9 = load i64, ptr %4, align 8
  %10 = getelementptr inbounds i32, ptr %8, i64 %9
  ret ptr %10
}

; Function Attrs: mustprogress nounwind uwtable
define linkonce_odr hidden void @_ZN4llvm14PressureChange10setUnitIncEi(ptr noundef nonnull align 2 dereferenceable(4) %0, i32 noundef %1) #0 comdat align 2 {
  %3 = alloca ptr, align 8
  %4 = alloca i32, align 4
  store ptr %0, ptr %3, align 8
  store i32 %1, ptr %4, align 4
  %5 = load ptr, ptr %3, align 8
  %6 = load i32, ptr %4, align 4
  %7 = trunc i32 %6 to i16
  %8 = getelementptr inbounds nuw %"class.llvm::PressureChange", ptr %5, i32 0, i32 1
  store i16 %7, ptr %8, align 2
  ret void
}

; Function Attrs: mustprogress nounwind uwtable
define linkonce_odr hidden void @_ZN4llvm14PressureChangeC2Ej(ptr noundef nonnull align 2 dereferenceable(4) %0, i32 noundef %1) unnamed_addr #0 comdat align 2 {
  %3 = alloca ptr, align 8
  %4 = alloca i32, align 4
  store ptr %0, ptr %3, align 8
  store i32 %1, ptr %4, align 4
  %5 = load ptr, ptr %3, align 8
  %6 = getelementptr inbounds nuw %"class.llvm::PressureChange", ptr %5, i32 0, i32 0
  %7 = load i32, ptr %4, align 4
  %8 = add i32 %7, 1
  %9 = trunc i32 %8 to i16
  store i16 %9, ptr %6, align 2
  %10 = getelementptr inbounds nuw %"class.llvm::PressureChange", ptr %5, i32 0, i32 1
  store i16 0, ptr %10, align 2
  ret void
}

; Function Attrs: mustprogress nounwind uwtable
define linkonce_odr hidden noundef zeroext i1 @_ZNK4llvm8ArrayRefIjE5emptyEv(ptr noundef nonnull align 8 dereferenceable(16) %0) #0 comdat align 2 {
  %2 = alloca ptr, align 8
  store ptr %0, ptr %2, align 8
  %3 = load ptr, ptr %2, align 8
  %4 = getelementptr inbounds nuw %"class.llvm::ArrayRef.251", ptr %3, i32 0, i32 1
  %5 = load i64, ptr %4, align 8
  %6 = icmp eq i64 %5, 0
  ret i1 %6
}

; Function Attrs: mustprogress nounwind uwtable
define linkonce_odr hidden noundef i32 @_ZNK4llvm17RegisterClassInfo22getRegPressureSetLimitEj(ptr noundef nonnull align 8 dereferenceable(320) %0, i32 noundef %1) #0 comdat align 2 {
  %3 = alloca ptr, align 8
  %4 = alloca i32, align 4
  store ptr %0, ptr %3, align 8
  store i32 %1, ptr %4, align 4
  %5 = load ptr, ptr %3, align 8
  %6 = getelementptr inbounds nuw %"class.llvm::RegisterClassInfo", ptr %5, i32 0, i32 8
  %7 = load i32, ptr %4, align 4
  %8 = zext i32 %7 to i64
  %9 = call noundef nonnull align 4 dereferenceable(4) ptr @_ZNKSt10unique_ptrIA_jSt14default_deleteIS0_EEixEm(ptr noundef nonnull align 8 dereferenceable(8) %6, i64 noundef %8)
  %10 = load i32, ptr %9, align 4
  %11 = icmp ne i32 %10, 0
  br i1 %11, label %19, label %12

12:                                               ; preds = %2
  %13 = load i32, ptr %4, align 4
  %14 = call noundef i32 @_ZNK4llvm17RegisterClassInfo16computePSetLimitEj(ptr noundef nonnull align 8 dereferenceable(320) %5, i32 noundef %13)
  %15 = getelementptr inbounds nuw %"class.llvm::RegisterClassInfo", ptr %5, i32 0, i32 8
  %16 = load i32, ptr %4, align 4
  %17 = zext i32 %16 to i64
  %18 = call noundef nonnull align 4 dereferenceable(4) ptr @_ZNKSt10unique_ptrIA_jSt14default_deleteIS0_EEixEm(ptr noundef nonnull align 8 dereferenceable(8) %15, i64 noundef %17)
  store i32 %14, ptr %18, align 4
  br label %19

19:                                               ; preds = %12, %2
  %20 = getelementptr inbounds nuw %"class.llvm::RegisterClassInfo", ptr %5, i32 0, i32 8
  %21 = load i32, ptr %4, align 4
  %22 = zext i32 %21 to i64
  %23 = call noundef nonnull align 4 dereferenceable(4) ptr @_ZNKSt10unique_ptrIA_jSt14default_deleteIS0_EEixEm(ptr noundef nonnull align 8 dereferenceable(8) %20, i64 noundef %22)
  %24 = load i32, ptr %23, align 4
  ret i32 %24
}

; Function Attrs: mustprogress nounwind uwtable
define linkonce_odr hidden noundef nonnull align 4 dereferenceable(4) ptr @_ZNK4llvm8ArrayRefIjEixEm(ptr noundef nonnull align 8 dereferenceable(16) %0, i64 noundef %1) #0 comdat align 2 {
  %3 = alloca ptr, align 8
  %4 = alloca i64, align 8
  store ptr %0, ptr %3, align 8
  store i64 %1, ptr %4, align 8
  %5 = load ptr, ptr %3, align 8
  %6 = getelementptr inbounds nuw %"class.llvm::ArrayRef.251", ptr %5, i32 0, i32 0
  %7 = load ptr, ptr %6, align 8
  %8 = load i64, ptr %4, align 8
  %9 = getelementptr inbounds i32, ptr %7, i64 %8
  ret ptr %9
}

; Function Attrs: mustprogress nounwind uwtable
define linkonce_odr hidden noundef i64 @_ZNK4llvm8ArrayRefIjE4sizeEv(ptr noundef nonnull align 8 dereferenceable(16) %0) #0 comdat align 2 {
  %2 = alloca ptr, align 8
  store ptr %0, ptr %2, align 8
  %3 = load ptr, ptr %2, align 8
  %4 = getelementptr inbounds nuw %"class.llvm::ArrayRef.251", ptr %3, i32 0, i32 1
  %5 = load i64, ptr %4, align 8
  ret i64 %5
}

; Function Attrs: mustprogress nounwind uwtable
define linkonce_odr hidden void @_ZN4llvm14PressureChangeC2Ev(ptr noundef nonnull align 2 dereferenceable(4) %0) unnamed_addr #0 comdat align 2 {
  %2 = alloca ptr, align 8
  store ptr %0, ptr %2, align 8
  %3 = load ptr, ptr %2, align 8
  %4 = getelementptr inbounds nuw %"class.llvm::PressureChange", ptr %3, i32 0, i32 0
  store i16 0, ptr %4, align 2
  %5 = getelementptr inbounds nuw %"class.llvm::PressureChange", ptr %3, i32 0, i32 1
  store i16 0, ptr %5, align 2
  ret void
}

; Function Attrs: mustprogress nounwind uwtable
define internal void @_ZL26computeExcessPressureDeltaN4llvm8ArrayRefIjEES1_RNS_16RegPressureDeltaEPKNS_17RegisterClassInfoES1_(ptr %0, i64 %1, ptr %2, i64 %3, ptr noundef nonnull align 2 dereferenceable(12) %4, ptr noundef %5, ptr noundef byval(%"class.llvm::ArrayRef.251") align 8 %6) #0 {
  %8 = alloca %"class.llvm::ArrayRef.251", align 8
  %9 = alloca %"class.llvm::ArrayRef.251", align 8
  %10 = alloca ptr, align 8
  %11 = alloca ptr, align 8
  %12 = alloca %"class.llvm::PressureChange", align 2
  %13 = alloca i32, align 4
  %14 = alloca i32, align 4
  %15 = alloca i32, align 4
  %16 = alloca i32, align 4
  %17 = alloca i32, align 4
  %18 = alloca i32, align 4
  %19 = alloca %"class.llvm::PressureChange", align 2
  %20 = getelementptr inbounds nuw { ptr, i64 }, ptr %8, i32 0, i32 0
  store ptr %0, ptr %20, align 8
  %21 = getelementptr inbounds nuw { ptr, i64 }, ptr %8, i32 0, i32 1
  store i64 %1, ptr %21, align 8
  %22 = getelementptr inbounds nuw { ptr, i64 }, ptr %9, i32 0, i32 0
  store ptr %2, ptr %22, align 8
  %23 = getelementptr inbounds nuw { ptr, i64 }, ptr %9, i32 0, i32 1
  store i64 %3, ptr %23, align 8
  store ptr %4, ptr %10, align 8
  store ptr %5, ptr %11, align 8
  call void @llvm.memset.p0.i64(ptr align 2 %12, i8 0, i64 4, i1 false)
  call void @_ZN4llvm14PressureChangeC2Ev(ptr noundef nonnull align 2 dereferenceable(4) %12) #11
  %24 = load ptr, ptr %10, align 8
  %25 = getelementptr inbounds nuw %"struct.llvm::RegPressureDelta", ptr %24, i32 0, i32 0
  call void @llvm.memcpy.p0.p0.i64(ptr align 2 %25, ptr align 2 %12, i64 4, i1 false)
  store i32 0, ptr %13, align 4
  %26 = call noundef i64 @_ZNK4llvm8ArrayRefIjE4sizeEv(ptr noundef nonnull align 8 dereferenceable(16) %8)
  %27 = trunc i64 %26 to i32
  store i32 %27, ptr %14, align 4
  br label %28

28:                                               ; preds = %93, %7
  %29 = load i32, ptr %13, align 4
  %30 = load i32, ptr %14, align 4
  %31 = icmp ult i32 %29, %30
  br i1 %31, label %32, label %96

32:                                               ; preds = %28
  %33 = load i32, ptr %13, align 4
  %34 = zext i32 %33 to i64
  %35 = call noundef nonnull align 4 dereferenceable(4) ptr @_ZNK4llvm8ArrayRefIjEixEm(ptr noundef nonnull align 8 dereferenceable(16) %8, i64 noundef %34)
  %36 = load i32, ptr %35, align 4
  store i32 %36, ptr %15, align 4
  %37 = load i32, ptr %13, align 4
  %38 = zext i32 %37 to i64
  %39 = call noundef nonnull align 4 dereferenceable(4) ptr @_ZNK4llvm8ArrayRefIjEixEm(ptr noundef nonnull align 8 dereferenceable(16) %9, i64 noundef %38)
  %40 = load i32, ptr %39, align 4
  store i32 %40, ptr %16, align 4
  %41 = load i32, ptr %16, align 4
  %42 = load i32, ptr %15, align 4
  %43 = sub nsw i32 %41, %42
  store i32 %43, ptr %17, align 4
  %44 = load i32, ptr %17, align 4
  %45 = icmp ne i32 %44, 0
  br i1 %45, label %47, label %46

46:                                               ; preds = %32
  br label %93

47:                                               ; preds = %32
  %48 = load ptr, ptr %11, align 8
  %49 = load i32, ptr %13, align 4
  %50 = call noundef i32 @_ZNK4llvm17RegisterClassInfo22getRegPressureSetLimitEj(ptr noundef nonnull align 8 dereferenceable(320) %48, i32 noundef %49)
  store i32 %50, ptr %18, align 4
  %51 = call noundef zeroext i1 @_ZNK4llvm8ArrayRefIjE5emptyEv(ptr noundef nonnull align 8 dereferenceable(16) %6)
  br i1 %51, label %59, label %52

52:                                               ; preds = %47
  %53 = load i32, ptr %13, align 4
  %54 = zext i32 %53 to i64
  %55 = call noundef nonnull align 4 dereferenceable(4) ptr @_ZNK4llvm8ArrayRefIjEixEm(ptr noundef nonnull align 8 dereferenceable(16) %6, i64 noundef %54)
  %56 = load i32, ptr %55, align 4
  %57 = load i32, ptr %18, align 4
  %58 = add i32 %57, %56
  store i32 %58, ptr %18, align 4
  br label %59

59:                                               ; preds = %52, %47
  %60 = load i32, ptr %18, align 4
  %61 = load i32, ptr %15, align 4
  %62 = icmp ugt i32 %60, %61
  br i1 %62, label %63, label %73

63:                                               ; preds = %59
  %64 = load i32, ptr %18, align 4
  %65 = load i32, ptr %16, align 4
  %66 = icmp ugt i32 %64, %65
  br i1 %66, label %67, label %68

67:                                               ; preds = %63
  store i32 0, ptr %17, align 4
  br label %72

68:                                               ; preds = %63
  %69 = load i32, ptr %16, align 4
  %70 = load i32, ptr %18, align 4
  %71 = sub i32 %69, %70
  store i32 %71, ptr %17, align 4
  br label %72

72:                                               ; preds = %68, %67
  br label %82

73:                                               ; preds = %59
  %74 = load i32, ptr %18, align 4
  %75 = load i32, ptr %16, align 4
  %76 = icmp ugt i32 %74, %75
  br i1 %76, label %77, label %81

77:                                               ; preds = %73
  %78 = load i32, ptr %18, align 4
  %79 = load i32, ptr %15, align 4
  %80 = sub i32 %78, %79
  store i32 %80, ptr %17, align 4
  br label %81

81:                                               ; preds = %77, %73
  br label %82

82:                                               ; preds = %81, %72
  %83 = load i32, ptr %17, align 4
  %84 = icmp ne i32 %83, 0
  br i1 %84, label %85, label %92

85:                                               ; preds = %82
  %86 = load i32, ptr %13, align 4
  call void @_ZN4llvm14PressureChangeC2Ej(ptr noundef nonnull align 2 dereferenceable(4) %19, i32 noundef %86)
  %87 = load ptr, ptr %10, align 8
  %88 = getelementptr inbounds nuw %"struct.llvm::RegPressureDelta", ptr %87, i32 0, i32 0
  call void @llvm.memcpy.p0.p0.i64(ptr align 2 %88, ptr align 2 %19, i64 4, i1 false)
  %89 = load ptr, ptr %10, align 8
  %90 = getelementptr inbounds nuw %"struct.llvm::RegPressureDelta", ptr %89, i32 0, i32 0
  %91 = load i32, ptr %17, align 4
  call void @_ZN4llvm14PressureChange10setUnitIncEi(ptr noundef nonnull align 2 dereferenceable(4) %90, i32 noundef %91)
  br label %96

92:                                               ; preds = %82
  br label %93

93:                                               ; preds = %92, %46
  %94 = load i32, ptr %13, align 4
  %95 = add i32 %94, 1
  store i32 %95, ptr %13, align 4
  br label %28, !llvm.loop !17

96:                                               ; preds = %85, %28
  ret void
}