; Function Attrs: mustprogress nounwind uwtable
define internal fastcc void @_ZL26computeExcessPressureDeltaN4llvm8ArrayRefIjEES1_RNS_16RegPressureDeltaEPKNS_17RegisterClassInfoES1_(ptr nocapture readonly %0, i64 %1, ptr nocapture readonly %2, ptr nocapture noundef nonnull writeonly align 2 dereferenceable(12) %3, ptr noundef %4, ptr nocapture readonly %.0.val, i64 %.8.val) unnamed_addr #0 {
  store i32 0, ptr %3, align 2
  %6 = and i64 %1, 4294967295
  %.not16 = icmp eq i64 %6, 0
  br i1 %.not16, label %.loopexit, label %.lr.ph

.lr.ph:                                           ; preds = %5
  %7 = getelementptr inbounds nuw i8, ptr %4, i64 296
  %.8.val.fr = freeze i64 %.8.val
  %8 = icmp eq i64 %.8.val.fr, 0
  %wide.trip.count26 = and i64 %1, 4294967295
  br i1 %8, label %.lr.ph.split.us, label %.lr.ph.split

.lr.ph.split.us:                                  ; preds = %.lr.ph, %.thread.us
  %indvars.iv23 = phi i64 [ %indvars.iv.next24, %.thread.us ], [ 0, %.lr.ph ]
  %9 = getelementptr inbounds i32, ptr %0, i64 %indvars.iv23
  %10 = load i32, ptr %9, align 4
  %11 = getelementptr inbounds i32, ptr %2, i64 %indvars.iv23
  %12 = load i32, ptr %11, align 4
  %13 = sub nsw i32 %12, %10
  %.not.us = icmp eq i32 %13, 0
  br i1 %.not.us, label %.thread.us, label %14

14:                                               ; preds = %.lr.ph.split.us
  %15 = load ptr, ptr %7, align 8
  %16 = getelementptr inbounds i32, ptr %15, i64 %indvars.iv23
  %17 = load i32, ptr %16, align 4
  %.not.i.us = icmp eq i32 %17, 0
  %18 = trunc nuw i64 %indvars.iv23 to i32
  br i1 %.not.i.us, label %19, label %_ZNK4llvm17RegisterClassInfo22getRegPressureSetLimitEj.exit.us

19:                                               ; preds = %14
  %20 = tail call noundef i32 @_ZNK4llvm17RegisterClassInfo16computePSetLimitEj(ptr noundef nonnull align 8 dereferenceable(320) %4, i32 noundef %18) #14
  %21 = load ptr, ptr %7, align 8
  %22 = getelementptr inbounds i32, ptr %21, i64 %indvars.iv23
  store i32 %20, ptr %22, align 4
  %.pre.i.us = load ptr, ptr %7, align 8
  %.phi.trans.insert.i.us = getelementptr inbounds i32, ptr %.pre.i.us, i64 %indvars.iv23
  %.pre4.i.us = load i32, ptr %.phi.trans.insert.i.us, align 4
  br label %_ZNK4llvm17RegisterClassInfo22getRegPressureSetLimitEj.exit.us

_ZNK4llvm17RegisterClassInfo22getRegPressureSetLimitEj.exit.us: ; preds = %14, %19
  %23 = phi i32 [ %.pre4.i.us, %19 ], [ %17, %14 ]
  %24 = icmp ugt i32 %23, %10
  %25 = icmp ugt i32 %23, %12
  br i1 %24, label %28, label %26

26:                                               ; preds = %_ZNK4llvm17RegisterClassInfo22getRegPressureSetLimitEj.exit.us
  %27 = sub i32 %23, %10
  br i1 %25, label %select.unfold.us, label %.thread9

28:                                               ; preds = %_ZNK4llvm17RegisterClassInfo22getRegPressureSetLimitEj.exit.us
  %29 = sub nuw i32 %12, %23
  br i1 %25, label %.thread.us, label %select.unfold.us

select.unfold.us:                                 ; preds = %28, %26
  %.027.us = phi i32 [ %29, %28 ], [ %27, %26 ]
  %.not32.us = icmp eq i32 %.027.us, 0
  br i1 %.not32.us, label %.thread.us, label %.thread9

.thread.us:                                       ; preds = %select.unfold.us, %28, %.lr.ph.split.us
  %indvars.iv.next24 = add nuw nsw i64 %indvars.iv23, 1
  %exitcond27.not = icmp eq i64 %indvars.iv.next24, %wide.trip.count26
  br i1 %exitcond27.not, label %.loopexit, label %.lr.ph.split.us, !llvm.loop !47

.lr.ph.split:                                     ; preds = %.lr.ph, %.thread
  %indvars.iv = phi i64 [ %indvars.iv.next, %.thread ], [ 0, %.lr.ph ]
  %30 = getelementptr inbounds i32, ptr %0, i64 %indvars.iv
  %31 = load i32, ptr %30, align 4
  %32 = getelementptr inbounds i32, ptr %2, i64 %indvars.iv
  %33 = load i32, ptr %32, align 4
  %34 = sub nsw i32 %33, %31
  %.not = icmp eq i32 %34, 0
  br i1 %.not, label %.thread, label %35

35:                                               ; preds = %.lr.ph.split
  %36 = load ptr, ptr %7, align 8
  %37 = getelementptr inbounds i32, ptr %36, i64 %indvars.iv
  %38 = load i32, ptr %37, align 4
  %.not.i = icmp eq i32 %38, 0
  %39 = trunc nuw i64 %indvars.iv to i32
  br i1 %.not.i, label %40, label %_ZNK4llvm17RegisterClassInfo22getRegPressureSetLimitEj.exit

40:                                               ; preds = %35
  %41 = tail call noundef i32 @_ZNK4llvm17RegisterClassInfo16computePSetLimitEj(ptr noundef nonnull align 8 dereferenceable(320) %4, i32 noundef %39) #14
  %42 = load ptr, ptr %7, align 8
  %43 = getelementptr inbounds i32, ptr %42, i64 %indvars.iv
  store i32 %41, ptr %43, align 4
  %.pre.i = load ptr, ptr %7, align 8
  %.phi.trans.insert.i = getelementptr inbounds i32, ptr %.pre.i, i64 %indvars.iv
  %.pre4.i = load i32, ptr %.phi.trans.insert.i, align 4
  br label %_ZNK4llvm17RegisterClassInfo22getRegPressureSetLimitEj.exit

_ZNK4llvm17RegisterClassInfo22getRegPressureSetLimitEj.exit: ; preds = %35, %40
  %44 = phi i32 [ %.pre4.i, %40 ], [ %38, %35 ]
  %45 = getelementptr inbounds i32, ptr %.0.val, i64 %indvars.iv
  %46 = load i32, ptr %45, align 4
  %47 = add i32 %46, %44
  %48 = icmp ugt i32 %47, %31
  %49 = icmp ugt i32 %47, %33
  br i1 %48, label %50, label %52

50:                                               ; preds = %_ZNK4llvm17RegisterClassInfo22getRegPressureSetLimitEj.exit
  %51 = sub nuw i32 %33, %47
  br i1 %49, label %.thread, label %select.unfold

52:                                               ; preds = %_ZNK4llvm17RegisterClassInfo22getRegPressureSetLimitEj.exit
  %53 = sub i32 %47, %31
  br i1 %49, label %select.unfold, label %.thread9

select.unfold:                                    ; preds = %52, %50
  %.027 = phi i32 [ %51, %50 ], [ %53, %52 ]
  %.not32 = icmp eq i32 %.027, 0
  br i1 %.not32, label %.thread, label %.thread9

.thread9:                                         ; preds = %select.unfold, %52, %26, %select.unfold.us
  %.us-phi = phi i32 [ %18, %select.unfold.us ], [ %18, %26 ], [ %39, %52 ], [ %39, %select.unfold ]
  %.us-phi15 = phi i32 [ %13, %26 ], [ %.027.us, %select.unfold.us ], [ %.027, %select.unfold ], [ %34, %52 ]
  %54 = add i32 %.us-phi, 1
  %.sroa.0.0.insert.ext = and i32 %54, 65535
  store i32 %.sroa.0.0.insert.ext, ptr %3, align 2
  %55 = trunc i32 %.us-phi15 to i16
  %56 = getelementptr inbounds nuw i8, ptr %3, i64 2
  store i16 %55, ptr %56, align 2
  br label %.loopexit

.thread:                                          ; preds = %50, %select.unfold, %.lr.ph.split
  %indvars.iv.next = add nuw nsw i64 %indvars.iv, 1
  %exitcond.not = icmp eq i64 %indvars.iv.next, %wide.trip.count26
  br i1 %exitcond.not, label %.loopexit, label %.lr.ph.split, !llvm.loop !47

.loopexit:                                        ; preds = %.thread, %.thread.us, %5, %.thread9
  ret void
}